; Function Attrs: nounwind uwtable
define range(i32 0, 2) i32 @uriRemoveDotSegmentsAbsoluteA(ptr noundef captures(address_is_null) %0, ptr noundef %1) local_unnamed_addr #4 {
  %3 = icmp eq ptr %0, null
  br i1 %3, label %uriRemoveDotSegmentsA.exit, label %4

4:                                                ; preds = %2
  %5 = getelementptr inbounds nuw i8, ptr %0, i64 148
  %6 = load i32, ptr %5, align 4, !tbaa !10
  %7 = tail call i32 @uriRemoveDotSegmentsExA(ptr noundef nonnull %0, i32 noundef 0, i32 noundef %6, ptr noundef %1)
  br label %uriRemoveDotSegmentsA.exit

uriRemoveDotSegmentsA.exit:                       ; preds = %2, %4
  %.0.i = phi i32 [ %7, %4 ], [ 1, %2 ]
  ret i32 %.0.i
}